target datalayout = "e-m:e-p270:32:32-p271:32:32-p272:64:64-i64:64-i128:128-f80:128-n8:16:32:64-S128"
target triple = "x86_64-pc-linux-gnu"

%class.Metadata = type { ptr }
%class.OopHandle = type { ptr }
%class.AccessFlags = type { i32 }
%class.InstanceKlass = type { %class.Klass.base, ptr, ptr, ptr, ptr, ptr, ptr, ptr, ptr, ptr, ptr, i32, i32, i32, i32, i16, i16, i16, i16, i8, i8, i8, i8, %class.InstanceKlassFlags, ptr, ptr, ptr, ptr, ptr, i64, ptr, ptr, ptr, ptr, ptr, ptr, ptr, ptr, ptr, ptr, ptr, ptr, ptr }
%class.Klass.base = type <{ %class.Metadata, i32, i32, i32, i32, ptr, ptr, ptr, [8 x ptr], %class.OopHandle, ptr, ptr, ptr, ptr, ptr, i32, %class.AccessFlags, i64, i64, i8, i8, i16, i16, [2 x i8], i32 }>
%class.InstanceKlassFlags = type <{ i16, i8, i8 }>

@_ZN9CDSConfig27_is_dumping_dynamic_archiveE = external global i8, align 1

; Function Attrs: mustprogress nounwind uwtable
define linkonce_odr hidden noundef zeroext i16 @_ZNK18InstanceKlassFlags23shared_loader_type_bitsEv(ptr noundef nonnull align 2 dereferenceable(3) %0) #1 comdat align 2 {
  %2 = alloca ptr, align 8
  store ptr %0, ptr %2, align 8
  ret i16 896
}

; Function Attrs: mustprogress nounwind uwtable
define linkonce_odr hidden noundef zeroext i1 @_ZNK18InstanceKlassFlags28is_shared_unregistered_classEv(ptr noundef nonnull align 2 dereferenceable(3) %0) #1 comdat align 2 {
  %2 = alloca ptr, align 8
  store ptr %0, ptr %2, align 8
  %3 = load ptr, ptr %2, align 8
  %4 = getelementptr inbounds %class.InstanceKlassFlags, ptr %3, i32 0, i32 0
  %5 = load i16, ptr %4, align 2
  %6 = zext i16 %5 to i32
  %7 = call noundef zeroext i16 @_ZNK18InstanceKlassFlags23shared_loader_type_bitsEv(ptr noundef nonnull align 2 dereferenceable(3) %3)
  %8 = zext i16 %7 to i32
  %9 = and i32 %6, %8
  %10 = icmp eq i32 %9, 0
  ret i1 %10
}

; Function Attrs: mustprogress nounwind uwtable
define linkonce_odr hidden noundef zeroext i1 @_ZNK13InstanceKlass28is_shared_unregistered_classEv(ptr noundef nonnull align 8 dereferenceable(464) %0) #1 comdat align 2 {
  %2 = alloca ptr, align 8
  store ptr %0, ptr %2, align 8
  %3 = load ptr, ptr %2, align 8
  %4 = getelementptr inbounds %class.InstanceKlass, ptr %3, i32 0, i32 23
  %5 = call noundef zeroext i1 @_ZNK18InstanceKlassFlags28is_shared_unregistered_classEv(ptr noundef nonnull align 2 dereferenceable(3) %4)
  ret i1 %5
}

; Function Attrs: mustprogress nounwind uwtable
define linkonce_odr hidden noundef zeroext i1 @_ZN9CDSConfig26is_dumping_dynamic_archiveEv() #1 comdat align 2 {
  %1 = load i8, ptr @_ZN9CDSConfig27_is_dumping_dynamic_archiveE, align 1
  %2 = trunc i8 %1 to i1
  ret i1 %2
}

; Function Attrs: mustprogress nounwind uwtable
define hidden noundef zeroext i1 @_ZN15MetaspaceShared21may_be_eagerly_linkedEP13InstanceKlass(ptr noundef %0) #1 align 2 {
  %2 = alloca i1, align 1
  %3 = alloca ptr, align 8
  store ptr %0, ptr %3, align 8
  %4 = load ptr, ptr %3, align 8
  %5 = call noundef zeroext i1 @_ZNK13InstanceKlass27can_be_verified_at_dumptimeEv(ptr noundef nonnull align 8 dereferenceable(464) %4)
  br i1 %5, label %7, label %6

6:                                                ; preds = %1
  store i1 false, ptr %2, align 1
  br label %14

7:                                                ; preds = %1
  %8 = call noundef zeroext i1 @_ZN9CDSConfig26is_dumping_dynamic_archiveEv()
  br i1 %8, label %9, label %13

9:                                                ; preds = %7
  %10 = load ptr, ptr %3, align 8
  %11 = call noundef zeroext i1 @_ZNK13InstanceKlass28is_shared_unregistered_classEv(ptr noundef nonnull align 8 dereferenceable(464) %10)
  br i1 %11, label %12, label %13

12:                                               ; preds = %9
  store i1 false, ptr %2, align 1
  br label %14

13:                                               ; preds = %9, %7
  store i1 true, ptr %2, align 1
  br label %14

14:                                               ; preds = %13, %12, %6
  %15 = load i1, ptr %2, align 1
  ret i1 %15
}