; Function Attrs: mustprogress nounwind uwtable
define hidden noundef zeroext i1 @_ZN15MetaspaceShared21may_be_eagerly_linkedEP13InstanceKlass(ptr noundef nonnull %0) local_unnamed_addr #3 align 2 {
  %2 = tail call noundef zeroext i1 @_ZNK13InstanceKlass27can_be_verified_at_dumptimeEv(ptr noundef nonnull align 8 dereferenceable(464) %0) #15
  br i1 %2, label %3, label %12

3:                                                ; preds = %1
  %4 = load i8, ptr @_ZN9CDSConfig27_is_dumping_dynamic_archiveE, align 1
  %5 = trunc i8 %4 to i1
  br i1 %5, label %6, label %11

6:                                                ; preds = %3
  %7 = getelementptr inbounds i8, ptr %0, i64 308
  %8 = load i16, ptr %7, align 2
  %9 = and i16 %8, 896
  %10 = icmp eq i16 %9, 0
  br i1 %10, label %12, label %11

11:                                               ; preds = %6, %3
  br label %12

12:                                               ; preds = %6, %1, %11
  %.0 = phi i1 [ true, %11 ], [ false, %1 ], [ false, %6 ]
  ret i1 %.0
}